ccopy_reg
_reconstructor
p0
(cdigits.model.images.classification.job
ImageClassificationModelJob
p1
c__builtin__
object
p2
Ntp3
Rp4
(dp5
S'exception'
p6
NsS'tasks'
p7
(lp8
g0
(cdigits.model.tasks.caffe_train
CaffeTrainTask
p9
g2
Ntp10
Rp11
(dp12
S'snapshot_interval'
p13
F1.0
sS'train_outputs'
p14
ccollections
OrderedDict
p15
((lp16
(lp17
S'epoch'
p18
ag0
(cdigits.model.tasks.train
NetworkOutput
p19
c__builtin__
tuple
p20
(S'Epoch'
p21
(lp22
I0
aF0.11764705882352941
aF0.23529411764705882
aF0.35294117647058826
aF0.47058823529411764
aF0.5882352941176471
aF0.7058823529411765
aF0.8235294117647058
aF0.9411764705882353
aF1.0588235294117647
aF1.1764705882352942
aF1.2941176470588236
aF1.411764705882353
aF1.5294117647058822
aF1.6470588235294117
aF1.7647058823529411
aF1.8823529411764706
aF2.0
aF2.1176470588235294
aF2.235294117647059
aF2.3529411764705883
aF2.4705882352941178
aF2.588235294117647
aF2.7058823529411766
aF2.823529411764706
aF2.9411764705882355
aF3.0588235294117645
aF3.176470588235294
aF3.2941176470588234
aF3.411764705882353
aF3.5294117647058822
aF3.6470588235294117
aF3.764705882352941
aF3.8823529411764706
aF4.0
aF4.117647058823529
aF4.235294117647059
aF4.352941176470588
aF4.470588235294118
aF4.588235294117647
aF4.705882352941177
aF4.823529411764706
aF4.9411764705882355
aF5.0588235294117645
aF5.176470588235294
aF5.294117647058823
aF5.411764705882353
aF5.529411764705882
aF5.647058823529412
aF5.764705882352941
aF5.882352941176471
aF6.0
aF6.117647058823529
aF6.235294117647059
aF6.352941176470588
aF6.470588235294118
aF6.588235294117647
aF6.705882352941177
aF6.823529411764706
aF6.9411764705882355
aF7.0588235294117645
aF7.176470588235294
aF7.294117647058823
aF7.411764705882353
aF7.529411764705882
aF7.647058823529412
aF7.764705882352941
aF7.882352941176471
aF8.0
aF8.117647058823529
aF8.235294117647058
aF8.352941176470589
aF8.470588235294118
aF8.588235294117647
aF8.705882352941176
aF8.823529411764707
aF8.941176470588236
aF9.058823529411764
aF9.176470588235293
aF9.294117647058824
aF9.411764705882353
aF9.529411764705882
aF9.647058823529411
aF9.764705882352942
aF9.882352941176471
aF10.0
aF10.117647058823529
aF10.235294117647058
aF10.352941176470589
aF10.470588235294118
aF10.588235294117647
aF10.705882352941176
aF10.823529411764707
aF10.941176470588236
aF11.058823529411764
aF11.176470588235293
aF11.294117647058824
aF11.411764705882353
aF11.529411764705882
aF11.647058823529411
aF11.764705882352942
aF11.882352941176471
aF12.0
aF12.117647058823529
aF12.235294117647058
aF12.352941176470589
aF12.470588235294118
aF12.588235294117647
aF12.705882352941176
aF12.823529411764707
aF12.941176470588236
aF13.058823529411764
aF13.176470588235293
aF13.294117647058824
aF13.411764705882353
aF13.529411764705882
aF13.647058823529411
aF13.764705882352942
aF13.882352941176471
aF14.0
aF14.117647058823529
aF14.235294117647058
aF14.352941176470589
aF14.470588235294118
aF14.588235294117647
aF14.705882352941176
aF14.823529411764707
aF14.941176470588236
aF15.058823529411764
aF15.176470588235293
aF15.294117647058824
aF15.411764705882353
aF15.529411764705882
aF15.647058823529411
aF15.764705882352942
aF15.882352941176471
aF16.0
aF16.11764705882353
aF16.235294117647058
aF16.352941176470587
aF16.470588235294116
aF16.58823529411765
aF16.705882352941178
aF16.823529411764707
aF16.941176470588236
aF17.058823529411764
aF17.176470588235293
aF17.294117647058822
aF17.41176470588235
aF17.529411764705884
aF17.647058823529413
aF17.764705882352942
aF17.88235294117647
aF18.0
aF18.11764705882353
aF18.235294117647058
aF18.352941176470587
aF18.470588235294116
aF18.58823529411765
aF18.705882352941178
aF18.823529411764707
aF18.941176470588236
aF19.058823529411764
aF19.176470588235293
aF19.294117647058822
aF19.41176470588235
aF19.529411764705884
aF19.647058823529413
aF19.764705882352942
aF19.88235294117647
aF20.0
aF20.11764705882353
aF20.235294117647058
aF20.352941176470587
aF20.470588235294116
aF20.58823529411765
aF20.705882352941178
aF20.823529411764707
aF20.941176470588236
aF21.058823529411764
aF21.176470588235293
aF21.294117647058822
aF21.41176470588235
aF21.529411764705884
aF21.647058823529413
aF21.764705882352942
aF21.88235294117647
aF22.0
aF22.11764705882353
aF22.235294117647058
aF22.352941176470587
aF22.470588235294116
aF22.58823529411765
aF22.705882352941178
aF22.823529411764707
aF22.941176470588236
aF23.058823529411764
aF23.176470588235293
aF23.294117647058822
aF23.41176470588235
aF23.529411764705884
aF23.647058823529413
aF23.764705882352942
aF23.88235294117647
aF24.0
aF24.11764705882353
aF24.235294117647058
aF24.352941176470587
aF24.470588235294116
aF24.58823529411765
aF24.705882352941178
aF24.823529411764707
aF24.941176470588236
aF25.058823529411764
aF25.176470588235293
aF25.294117647058822
aF25.41176470588235
aF25.529411764705884
aF25.647058823529413
aF25.764705882352942
aF25.88235294117647
aF26.0
aF26.11764705882353
aF26.235294117647058
aF26.352941176470587
aF26.470588235294116
aF26.58823529411765
aF26.705882352941178
aF26.823529411764707
aF26.941176470588236
aF27.058823529411764
aF27.176470588235293
aF27.294117647058822
aF27.41176470588235
aF27.529411764705884
aF27.647058823529413
aF27.764705882352942
aF27.88235294117647
aF28.0
aF28.11764705882353
aF28.235294117647058
aF28.352941176470587
aF28.470588235294116
aF28.58823529411765
aF28.705882352941178
aF28.823529411764707
aF28.941176470588236
aF29.058823529411764
aF29.176470588235293
aF29.294117647058822
aF29.41176470588235
aF29.529411764705884
aF29.647058823529413
aF29.764705882352942
aF29.88235294117647
atp23
tp24
Rp25
aa(lp26
S'loss'
p27
ag0
(g19
g20
(S'SoftmaxWithLoss'
p28
(lp29
F0.752995
aF0.798542
aF0.762044
aF0.632139
aF0.577291
aF0.713799
aF0.680494
aF0.666528
aF0.670179
aF0.546861
aF0.523414
aF0.551937
aF0.480265
aF0.508042
aF0.579541
aF0.478226
aF0.541531
aF0.536808
aF0.473693
aF0.471733
aF0.441844
aF0.407573
aF0.435204
aF0.351351
aF0.397249
aF0.454918
aF0.286443
aF0.348686
aF0.341015
aF0.309155
aF0.298288
aF0.264592
aF0.281069
aF0.271577
aF0.192772
aF0.230371
aF0.230049
aF0.169769
aF0.239233
aF0.198077
aF0.161838
aF0.18264
aF0.160525
aF0.108242
aF0.198663
aF0.118392
aF0.100411
aF0.233872
aF0.0959518
aF0.109284
aF0.129165
aF0.0949327
aF0.122357
aF0.0983941
aF0.0736347
aF0.069212
aF0.116213
aF0.074352
aF0.0720648
aF0.0549047
aF0.0531447
aF0.0646243
aF0.0548582
aF0.0568915
aF0.0688955
aF0.102739
aF0.0500973
aF0.0314665
aF0.0497457
aF0.0404946
aF0.0390996
aF0.0479374
aF0.0334971
aF0.0288117
aF0.03204
aF0.0433991
aF0.0301491
aF0.0343765
aF0.0466052
aF0.060628
aF0.0300774
aF0.0115046
aF0.0328606
aF0.0591082
aF0.0389718
aF0.0583395
aF0.105875
aF0.243271
aF0.199953
aF0.130012
aF0.149592
aF0.0553957
aF0.0500585
aF0.057579
aF0.0476157
aF0.0377728
aF0.0143049
aF0.0191754
aF0.0203302
aF0.0138898
aF0.019543
aF0.0372081
aF0.0677058
aF0.0177359
aF0.0122809
aF0.0163095
aF0.0180969
aF0.0108246
aF0.0148355
aF0.0131141
aF0.0243708
aF0.0139818
aF0.0136353
aF0.0145836
aF0.0222216
aF0.0103734
aF0.0122044
aF0.00946121
aF0.0159919
aF0.0168578
aF0.0133849
aF0.013073
aF0.0165995
aF0.0124137
aF0.011061
aF0.00845808
aF0.014513
aF0.0171302
aF0.013499
aF0.0118908
aF0.0114703
aF0.0122698
aF0.00686951
aF0.00920971
aF0.0107494
aF0.0223026
aF0.0113263
aF0.00957702
aF0.0123551
aF0.0169014
aF0.00804222
aF0.00986751
aF0.0103892
aF0.0171885
aF0.0113368
aF0.0126859
aF0.00956221
aF0.0134477
aF0.00985655
aF0.0110346
aF0.00706486
aF0.0127867
aF0.0142606
aF0.0132942
aF0.00847375
aF0.00849522
aF0.0106155
aF0.00718845
aF0.00656586
aF0.0110573
aF0.0150718
aF0.0101706
aF0.00996484
aF0.0124976
aF0.0105237
aF0.00496422
aF0.00894261
aF0.00873512
aF0.0178255
aF0.0067818
aF0.00762435
aF0.011383
aF0.0131055
aF0.00748162
aF0.00874778
aF0.00827185
aF0.0104182
aF0.00966725
aF0.010055
aF0.00704122
aF0.00968386
aF0.00903738
aF0.00845109
aF0.00663839
aF0.0107004
aF0.0102623
aF0.0121878
aF0.00855756
aF0.00825479
aF0.0104341
aF0.00602295
aF0.00580076
aF0.00969463
aF0.0138198
aF0.00931684
aF0.009207
aF0.0109081
aF0.00987866
aF0.00550551
aF0.00799432
aF0.00734263
aF0.0147826
aF0.00946311
aF0.00862139
aF0.0103918
aF0.0120138
aF0.00744266
aF0.00829042
aF0.00757443
aF0.00965287
aF0.0105461
aF0.00975697
aF0.0071744
aF0.00970831
aF0.00939114
aF0.00767162
aF0.00618843
aF0.00985429
aF0.00968792
aF0.0108396
aF0.00840659
aF0.00842208
aF0.0107832
aF0.0058315
aF0.00639205
aF0.00870304
aF0.0156702
aF0.00936184
aF0.00842669
aF0.0105648
aF0.0100419
aF0.00570289
aF0.00844412
aF0.00796669
aF0.0137951
aF0.00965782
aF0.00891297
aF0.00861636
aF0.0119485
aF0.00617927
aF0.0083446
aF0.00591887
aF0.0100653
aF0.0107995
aF0.00935993
aF0.00821184
aF0.0107292
aF0.00882171
aF0.00699473
aF0.00546651
aF0.010095
aF0.0111976
aF0.00935344
aF0.0084727
aF0.00863517
atp30
tp31
Rp32
aa(lp33
S'learning_rate'
p34
ag0
(g19
g20
(S'LearningRate'
p35
(lp36
F0.01
aF0.01
aF0.01
aF0.01
aF0.01
aF0.01
aF0.01
aF0.01
aF0.01
aF0.01
aF0.01
aF0.01
aF0.01
aF0.01
aF0.01
aF0.01
aF0.01
aF0.01
aF0.01
aF0.01
aF0.01
aF0.01
aF0.01
aF0.01
aF0.01
aF0.01
aF0.01
aF0.01
aF0.01
aF0.01
aF0.01
aF0.01
aF0.01
aF0.01
aF0.01
aF0.01
aF0.01
aF0.01
aF0.01
aF0.01
aF0.01
aF0.01
aF0.01
aF0.01
aF0.01
aF0.01
aF0.01
aF0.01
aF0.01
aF0.01
aF0.01
aF0.01
aF0.01
aF0.01
aF0.01
aF0.01
aF0.01
aF0.01
aF0.01
aF0.01
aF0.01
aF0.01
aF0.01
aF0.01
aF0.01
aF0.01
aF0.01
aF0.01
aF0.01
aF0.01
aF0.01
aF0.01
aF0.01
aF0.01
aF0.01
aF0.01
aF0.01
aF0.01
aF0.01
aF0.01
aF0.01
aF0.01
aF0.01
aF0.01
aF0.01
aF0.001
aF0.001
aF0.001
aF0.001
aF0.001
aF0.001
aF0.001
aF0.001
aF0.001
aF0.001
aF0.001
aF0.001
aF0.001
aF0.001
aF0.001
aF0.001
aF0.001
aF0.001
aF0.001
aF0.001
aF0.001
aF0.001
aF0.001
aF0.001
aF0.001
aF0.001
aF0.001
aF0.001
aF0.001
aF0.001
aF0.001
aF0.001
aF0.001
aF0.001
aF0.001
aF0.001
aF0.001
aF0.001
aF0.001
aF0.001
aF0.001
aF0.001
aF0.001
aF0.001
aF0.001
aF0.001
aF0.001
aF0.001
aF0.001
aF0.001
aF0.001
aF0.001
aF0.001
aF0.001
aF0.001
aF0.001
aF0.001
aF0.001
aF0.001
aF0.001
aF0.001
aF0.001
aF0.001
aF0.001
aF0.001
aF0.001
aF0.001
aF0.001
aF0.001
aF0.001
aF0.001
aF0.001
aF0.001
aF0.001
aF0.001
aF0.001
aF0.001
aF0.001
aF0.001
aF0.001
aF0.001
aF0.001
aF0.001
aF0.001
aF0.0001
aF0.0001
aF0.0001
aF0.0001
aF0.0001
aF0.0001
aF0.0001
aF0.0001
aF0.0001
aF0.0001
aF0.0001
aF0.0001
aF0.0001
aF0.0001
aF0.0001
aF0.0001
aF0.0001
aF0.0001
aF0.0001
aF0.0001
aF0.0001
aF0.0001
aF0.0001
aF0.0001
aF0.0001
aF0.0001
aF0.0001
aF0.0001
aF0.0001
aF0.0001
aF0.0001
aF0.0001
aF0.0001
aF0.0001
aF0.0001
aF0.0001
aF0.0001
aF0.0001
aF0.0001
aF0.0001
aF0.0001
aF0.0001
aF0.0001
aF0.0001
aF0.0001
aF0.0001
aF0.0001
aF0.0001
aF0.0001
aF0.0001
aF0.0001
aF0.0001
aF0.0001
aF0.0001
aF0.0001
aF0.0001
aF0.0001
aF0.0001
aF0.0001
aF0.0001
aF0.0001
aF0.0001
aF0.0001
aF0.0001
aF0.0001
aF0.0001
aF0.0001
aF0.0001
aF0.0001
aF0.0001
aF0.0001
aF0.0001
aF0.0001
aF0.0001
aF0.0001
aF0.0001
aF0.0001
aF0.0001
aF0.0001
aF0.0001
aF0.0001
aF0.0001
aF0.0001
aF0.0001
aF0.0001
aF1e-05
atp37
tp38
Rp39
aatp40
Rp41
sS'val_outputs'
p42
g15
((lp43
(lp44
g18
ag0
(g19
g20
(g21
(lp45
I0
aF1.0
aF2.0
aF3.0
aF4.0
aF5.0
aF6.0
aF7.0
aF8.0
aF9.0
aF10.0
aF11.0
aF12.0
aF13.0
aF14.0
aF15.0
aF16.0
aF17.0
aF18.0
aF19.0
aF20.0
aF21.0
aF22.0
aF23.0
aF24.0
aF25.0
aF26.0
aF27.0
aF28.0
aF29.0
aF30.0
atp46
tp47
Rp48
aa(lp49
S'accuracy'
p50
ag0
(g19
g20
(S'Accuracy'
p51
(lp52
F0.5025
aF0.6675
aF0.72
aF0.7375
aF0.72
aF0.7425
aF0.7425
aF0.7625
aF0.775
aF0.7325
aF0.705
aF0.7275
aF0.7475
aF0.7375
aF0.725
aF0.745
aF0.7375
aF0.7175
aF0.7425
aF0.725
aF0.735
aF0.725
aF0.7425
aF0.7375
aF0.7225
aF0.7325
aF0.725
aF0.74
aF0.715
aF0.7375
aF0.74
atp53
tp54
Rp55
aa(lp56
S'loss'
p57
ag0
(g19
g20
(S'SoftmaxWithLoss'
p58
(lp59
F0.731101
aF0.600339
aF0.543898
aF0.506815
aF0.547988
aF0.533655
aF0.612354
aF0.603849
aF0.698754
aF0.784638
aF0.937286
aF0.841923
aF0.807722
aF0.835955
aF0.787451
aF0.734526
aF0.755183
aF0.82574
aF0.743631
aF0.804944
aF0.805103
aF0.821963
aF0.753707
aF0.755033
aF0.79686
aF0.779302
aF0.809079
aF0.780676
aF0.861222
aF0.76338
aF0.749039
atp60
tp61
Rp62
aatp63
Rp64
sS'loaded_snapshot_epoch'
p65
F30.0
sS'pretrained_model'
p66
NsS'deploy_file'
p67
S'deploy.prototxt'
p68
sS'current_iteration'
p69
I510
sS'gpu_count'
p70
I1
sS'train_epochs'
p71
I30
sS'job_id'
p72
S'20150709-000531-a9fd'
p73
sS'use_mean'
p74
I01
sS'job_dir'
p75
S'/home/demulab/digits-2.0/digits/digits/jobs/20150709-000531-a9fd'
p76
sS'receiving_val_output'
p77
I00
sS'parents'
p78
NsS'progress'
p79
F1.0
sS'lr_policy'
p80
(dp81
S'policy'
p82
Vstep
p83
sS'stepsize'
p84
F33.0
sS'gamma'
p85
F0.1
ssS'crop_size'
p86
NsS'receiving_train_output'
p87
I00
sS'val_interval'
p88
F1.0
sS'current_epoch'
p89
F30.0
sS'random_seed'
p90
NsS'saving_snapshot'
p91
I00
sS'pickver_task_caffe_train'
p92
I2
sg34
F0.01
sS'loaded_snapshot_file'
p93
S'/home/demulab/digits-2.0/digits/digits/jobs/20150709-000531-a9fd/snapshot_iter_510.caffemodel'
p94
sS'batch_size'
p95
NsS'pickver_task_train'
p96
I2
sS'caffe_log_file'
p97
S'caffe_output.log'
p98
sS'pickver_task'
p99
I1
sS'network'
p100
ccaffe.proto.caffe_pb2
NetParameter
p101
(tRp102
(dp103
S'serialized'
p104
S'\n\x05LeNet\xa2\x06#\n\x05mnist\x12\x04Data"\x04data"\x05labelB\x02\x08\x00\xda\x06\x02 @\xa2\x06#\n\x05mnist\x12\x04Data"\x04data"\x05labelB\x02\x08\x01\xda\x06\x02 d\xa2\x06#\n\x05scale\x12\x05Power\x1a\x04data"\x05scale\xd2\x07\x05\x15\xcd\xccL<\xa2\x06O\n\x05conv1\x12\x0bConvolution\x1a\x05scale"\x05conv12\x05\x1d\x00\x00\x80?2\x05\x1d\x00\x00\x00@\xd2\x06\x1c\x08\x14 \x050\x01:\x08\n\x06xavierB\n\n\x08constant\xa2\x06\'\n\x05pool1\x12\x07Pooling\x1a\x05conv1"\x05pool1\xca\x07\x06\x08\x00\x10\x02\x18\x02\xa2\x06O\n\x05conv2\x12\x0bConvolution\x1a\x05pool1"\x05conv22\x05\x1d\x00\x00\x80?2\x05\x1d\x00\x00\x00@\xd2\x06\x1c\x082 \x050\x01:\x08\n\x06xavierB\n\n\x08constant\xa2\x06\'\n\x05pool2\x12\x07Pooling\x1a\x05conv2"\x05pool2\xca\x07\x06\x08\x00\x10\x02\x18\x02\xa2\x06I\n\x03ip1\x12\x0cInnerProduct\x1a\x05pool2"\x03ip12\x05\x1d\x00\x00\x80?2\x05\x1d\x00\x00\x00@\xaa\x07\x19\x08\xf4\x03\x1a\x08\n\x06xavier"\n\n\x08constant\xa2\x06\x17\n\x05relu1\x12\x04ReLU\x1a\x03ip1"\x03ip1\xa2\x06D\n\x03ip2\x12\x0cInnerProduct\x1a\x03ip1"\x03ip22\x05\x1d\x00\x00\x80?2\x05\x1d\x00\x00\x00@\xaa\x07\x16\x1a\x08\n\x06xavier"\n\n\x08constant\xa2\x06.\n\x08accuracy\x12\x08Accuracy\x1a\x03ip2\x1a\x05label"\x08accuracyB\x02\x08\x01\xa2\x06)\n\x04loss\x12\x0fSoftmaxWithLoss\x1a\x03ip2\x1a\x05label"\x04loss'
p105
sbsg6
NsS'current_resources'
p106
NsS'selected_gpus'
p107
NsS'solver'
p108
ccaffe.proto.caffe_pb2
SolverParameter
p109
(tRp110
(dp111
g104
S'\x18\x04 \x11-\n\xd7#<0\x028\xfe\x03B\x04stepM\xcd\xcc\xcc=]fff?eo\x12\x03:h\xa9\x01p\x11z\x08snapshot\x88\x01\x01\xc2\x01\x12train_val.prototxt\xf0\x01\x01'
p112
sbsS'snapshot_prefix'
p113
S'snapshot'
p114
sS'traceback'
p115
NsS'status_history'
p116
(lp117
((idigits.status
Status
p118
S'I'
p120
bF1436367931.883676
tp121
a((idigits.status
Status
p122
S'R'
p123
bF1436367933.551427
tp124
a((idigits.status
Status
p125
S'D'
p126
bF1436367950.954688
tp127
asS'last_train_update'
p128
F1436367949.146412
sS'train_val_file'
p129
S'train_val.prototxt'
p130
sS'image_mean'
p131
NsS'solver_file'
p132
S'solver.prototxt'
p133
sS'solver_type'
p134
VNESTEROV
p135
sbasg116
(lp136
((idigits.status
Status
p137
g120
bF1436367931.879162
tp138
a((idigits.status
Status
p139
g123
bF1436367933.264118
tp140
a((idigits.status
Status
p141
g126
bF1436367951.013536
tp142
asS'_id'
p143
S'20150709-000531-a9fd'
p144
sS'pickver_job'
p145
I1
sS'dataset_id'
p146
S'20150709-000506-f35f'
p147
sS'_name'
p148
VNesterov-kd
p149
sS'pickver_job_dataset'
p150
I1
sS'pickver_job_model_image'
p151
I1
sS'pickver_job_model_image_classification'
p152
I1
sb.